target datalayout = "e-m:e-p270:32:32-p271:32:32-p272:64:64-i64:64-i128:128-f80:128-n8:16:32:64-S128"
target triple = "x86_64-pc-linux-gnu"

%struct.SDL_Environment = type { ptr, ptr }

@.str = private unnamed_addr constant [26 x i8] c"Parameter '%s' is invalid\00", align 1
@.str.1 = private unnamed_addr constant [4 x i8] c"env\00", align 1
@.str.2 = private unnamed_addr constant [5 x i8] c"name\00", align 1
@.str.3 = private unnamed_addr constant [6 x i8] c"value\00", align 1
@.str.4 = private unnamed_addr constant [6 x i8] c"%s=%s\00", align 1

; Function Attrs: nounwind uwtable
define hidden zeroext i1 @SDL_SetEnvironmentVariable_REAL(ptr noundef %0, ptr noundef %1, ptr noundef %2, i1 noundef zeroext %3) #0 {
  %5 = alloca i1, align 1
  %6 = alloca ptr, align 8
  %7 = alloca ptr, align 8
  %8 = alloca ptr, align 8
  %9 = alloca i8, align 1
  %10 = alloca i8, align 1
  %11 = alloca i32, align 4
  %12 = alloca ptr, align 8
  %13 = alloca i64, align 8
  %14 = alloca ptr, align 8
  %15 = alloca ptr, align 8
  store ptr %0, ptr %6, align 8
  store ptr %1, ptr %7, align 8
  store ptr %2, ptr %8, align 8
  %16 = zext i1 %3 to i8
  store i8 %16, ptr %9, align 1
  call void @llvm.lifetime.start.p0(i64 1, ptr %10) #7
  store i8 0, ptr %10, align 1
  %17 = load ptr, ptr %6, align 8
  %18 = icmp ne ptr %17, null
  br i1 %18, label %21, label %19

19:                                               ; preds = %4
  %20 = call zeroext i1 (ptr, ...) @SDL_SetError_REAL(ptr noundef @.str, ptr noundef @.str.1)
  store i1 %20, ptr %5, align 1
  store i32 1, ptr %11, align 4
  br label %93

21:                                               ; preds = %4
  %22 = load ptr, ptr %7, align 8
  %23 = icmp ne ptr %22, null
  br i1 %23, label %24, label %33

24:                                               ; preds = %21
  %25 = load ptr, ptr %7, align 8
  %26 = load i8, ptr %25, align 1
  %27 = sext i8 %26 to i32
  %28 = icmp eq i32 %27, 0
  br i1 %28, label %33, label %29

29:                                               ; preds = %24
  %30 = load ptr, ptr %7, align 8
  %31 = call ptr @SDL_strchr_REAL(ptr noundef %30, i32 noundef 61)
  %32 = icmp ne ptr %31, null
  br i1 %32, label %33, label %35

33:                                               ; preds = %29, %24, %21
  %34 = call zeroext i1 (ptr, ...) @SDL_SetError_REAL(ptr noundef @.str, ptr noundef @.str.2)
  store i1 %34, ptr %5, align 1
  store i32 1, ptr %11, align 4
  br label %93

35:                                               ; preds = %29
  %36 = load ptr, ptr %8, align 8
  %37 = icmp ne ptr %36, null
  br i1 %37, label %40, label %38

38:                                               ; preds = %35
  %39 = call zeroext i1 (ptr, ...) @SDL_SetError_REAL(ptr noundef @.str, ptr noundef @.str.3)
  store i1 %39, ptr %5, align 1
  store i32 1, ptr %11, align 4
  br label %93

40:                                               ; preds = %35
  br label %41

41:                                               ; preds = %40
  br label %42

42:                                               ; preds = %41
  %43 = load ptr, ptr %6, align 8
  %44 = getelementptr inbounds nuw %struct.SDL_Environment, ptr %43, i32 0, i32 0
  %45 = load ptr, ptr %44, align 8
  call void @SDL_LockMutex_REAL(ptr noundef %45)
  call void @llvm.lifetime.start.p0(i64 8, ptr %12) #7
  store ptr null, ptr %12, align 8
  %46 = load ptr, ptr %7, align 8
  %47 = load ptr, ptr %8, align 8
  %48 = call i32 (ptr, ptr, ...) @SDL_asprintf_REAL(ptr noundef %12, ptr noundef @.str.4, ptr noundef %46, ptr noundef %47)
  %49 = icmp sgt i32 %48, 0
  br i1 %49, label %50, label %87

50:                                               ; preds = %42
  call void @llvm.lifetime.start.p0(i64 8, ptr %13) #7
  %51 = load ptr, ptr %7, align 8
  %52 = call i64 @SDL_strlen_REAL(ptr noundef %51)
  store i64 %52, ptr %13, align 8
  %53 = load ptr, ptr %12, align 8
  %54 = load i64, ptr %13, align 8
  %55 = getelementptr inbounds nuw i8, ptr %53, i64 %54
  store i8 0, ptr %55, align 1
  call void @llvm.lifetime.start.p0(i64 8, ptr %14) #7
  %56 = load ptr, ptr %7, align 8
  store ptr %56, ptr %14, align 8
  %57 = load ptr, ptr %12, align 8
  store ptr %57, ptr %7, align 8
  %58 = load ptr, ptr %12, align 8
  %59 = load i64, ptr %13, align 8
  %60 = getelementptr inbounds nuw i8, ptr %58, i64 %59
  %61 = getelementptr inbounds i8, ptr %60, i64 1
  store ptr %61, ptr %8, align 8
  %62 = load ptr, ptr %6, align 8
  %63 = getelementptr inbounds nuw %struct.SDL_Environment, ptr %62, i32 0, i32 1
  %64 = load ptr, ptr %63, align 8
  %65 = load ptr, ptr %7, align 8
  %66 = load ptr, ptr %8, align 8
  %67 = load i8, ptr %9, align 1, !range !3, !noundef !4
  %68 = trunc i8 %67 to i1
  %69 = call zeroext i1 @SDL_InsertIntoHashTable(ptr noundef %64, ptr noundef %65, ptr noundef %66, i1 noundef zeroext %68)
  %70 = zext i1 %69 to i8
  store i8 %70, ptr %10, align 1
  %71 = load i8, ptr %10, align 1, !range !3, !noundef !4
  %72 = trunc i8 %71 to i1
  br i1 %72, label %86, label %73

73:                                               ; preds = %50
  %74 = load ptr, ptr %12, align 8
  call void @SDL_free_REAL(ptr noundef %74)
  %75 = load i8, ptr %9, align 1, !range !3, !noundef !4
  %76 = trunc i8 %75 to i1
  br i1 %76, label %85, label %77

77:                                               ; preds = %73
  call void @llvm.lifetime.start.p0(i64 8, ptr %15) #7
  store ptr null, ptr %15, align 8
  %78 = load ptr, ptr %6, align 8
  %79 = getelementptr inbounds nuw %struct.SDL_Environment, ptr %78, i32 0, i32 1
  %80 = load ptr, ptr %79, align 8
  %81 = load ptr, ptr %14, align 8
  %82 = call zeroext i1 @SDL_FindInHashTable(ptr noundef %80, ptr noundef %81, ptr noundef %15)
  br i1 %82, label %83, label %84

83:                                               ; preds = %77
  store i8 1, ptr %10, align 1
  br label %84

84:                                               ; preds = %83, %77
  call void @llvm.lifetime.end.p0(i64 8, ptr %15) #7
  br label %85

85:                                               ; preds = %84, %73
  br label %86

86:                                               ; preds = %85, %50
  call void @llvm.lifetime.end.p0(i64 8, ptr %14) #7
  call void @llvm.lifetime.end.p0(i64 8, ptr %13) #7
  br label %87

87:                                               ; preds = %86, %42
  call void @llvm.lifetime.end.p0(i64 8, ptr %12) #7
  %88 = load ptr, ptr %6, align 8
  %89 = getelementptr inbounds nuw %struct.SDL_Environment, ptr %88, i32 0, i32 0
  %90 = load ptr, ptr %89, align 8
  call void @SDL_UnlockMutex_REAL(ptr noundef %90)
  %91 = load i8, ptr %10, align 1, !range !3, !noundef !4
  %92 = trunc i8 %91 to i1
  store i1 %92, ptr %5, align 1
  store i32 1, ptr %11, align 4
  br label %93

93:                                               ; preds = %87, %38, %33, %19
  call void @llvm.lifetime.end.p0(i64 1, ptr %10) #7
  %94 = load i1, ptr %5, align 1
  ret i1 %94
}