; Function Attrs: nounwind uwtable
define hidden zeroext i1 @SDL_SetEnvironmentVariable_REAL(ptr noundef readonly captures(address_is_null) %0, ptr noundef %1, ptr noundef %2, i1 noundef zeroext %3) local_unnamed_addr #0 {
  %5 = alloca ptr, align 8
  %6 = alloca ptr, align 8
  %.not = icmp eq ptr %0, null
  br i1 %.not, label %7, label %9

7:                                                ; preds = %4
  %8 = tail call zeroext i1 (ptr, ...) @SDL_SetError_REAL(ptr noundef nonnull @.str, ptr noundef nonnull @.str.1) #11
  br label %41

9:                                                ; preds = %4
  %.not26 = icmp eq ptr %1, null
  br i1 %.not26, label %15, label %10

10:                                               ; preds = %9
  %11 = load i8, ptr %1, align 1
  %12 = icmp eq i8 %11, 0
  br i1 %12, label %15, label %13

13:                                               ; preds = %10
  %14 = tail call ptr @SDL_strchr_REAL(ptr noundef nonnull %1, i32 noundef 61) #11
  %.not27 = icmp eq ptr %14, null
  br i1 %.not27, label %17, label %15

15:                                               ; preds = %13, %10, %9
  %16 = tail call zeroext i1 (ptr, ...) @SDL_SetError_REAL(ptr noundef nonnull @.str, ptr noundef nonnull @.str.2) #11
  br label %41

17:                                               ; preds = %13
  %.not28 = icmp eq ptr %2, null
  br i1 %.not28, label %18, label %20

18:                                               ; preds = %17
  %19 = tail call zeroext i1 (ptr, ...) @SDL_SetError_REAL(ptr noundef nonnull @.str, ptr noundef nonnull @.str.3) #11
  br label %41

20:                                               ; preds = %17
  %21 = load ptr, ptr %0, align 8
  tail call void @SDL_LockMutex_REAL(ptr noundef %21) #11
  call void @llvm.lifetime.start.p0(i64 8, ptr nonnull %5) #11
  store ptr null, ptr %5, align 8
  %22 = call i32 (ptr, ptr, ...) @SDL_asprintf_REAL(ptr noundef nonnull %5, ptr noundef nonnull @.str.4, ptr noundef nonnull %1, ptr noundef nonnull %2) #11
  %23 = icmp sgt i32 %22, 0
  br i1 %23, label %24, label %39

24:                                               ; preds = %20
  %25 = call i64 @SDL_strlen_REAL(ptr noundef nonnull %1) #11
  %26 = load ptr, ptr %5, align 8
  %27 = getelementptr inbounds nuw i8, ptr %26, i64 %25
  store i8 0, ptr %27, align 1
  %28 = load ptr, ptr %5, align 8
  %29 = getelementptr inbounds nuw i8, ptr %28, i64 %25
  %30 = getelementptr inbounds nuw i8, ptr %29, i64 1
  %31 = getelementptr inbounds nuw i8, ptr %0, i64 8
  %32 = load ptr, ptr %31, align 8
  %33 = call zeroext i1 @SDL_InsertIntoHashTable(ptr noundef %32, ptr noundef %28, ptr noundef nonnull %30, i1 noundef zeroext %3) #11
  br i1 %33, label %39, label %34

34:                                               ; preds = %24
  %35 = load ptr, ptr %5, align 8
  call void @SDL_free_REAL(ptr noundef %35) #11
  br i1 %3, label %39, label %36

36:                                               ; preds = %34
  call void @llvm.lifetime.start.p0(i64 8, ptr nonnull %6) #11
  store ptr null, ptr %6, align 8
  %37 = load ptr, ptr %31, align 8
  %38 = call zeroext i1 @SDL_FindInHashTable(ptr noundef %37, ptr noundef nonnull %1, ptr noundef nonnull %6) #11
  call void @llvm.lifetime.end.p0(i64 8, ptr nonnull %6) #11
  br label %39

39:                                               ; preds = %24, %36, %34, %20
  %.022 = phi i1 [ false, %20 ], [ true, %24 ], [ false, %34 ], [ %38, %36 ]
  call void @llvm.lifetime.end.p0(i64 8, ptr nonnull %5) #11
  %40 = load ptr, ptr %0, align 8
  call void @SDL_UnlockMutex_REAL(ptr noundef %40) #11
  br label %41

41:                                               ; preds = %39, %18, %15, %7
  %.0 = phi i1 [ %16, %15 ], [ %.022, %39 ], [ %19, %18 ], [ %8, %7 ]
  ret i1 %.0
}